; Function Attrs: mustprogress uwtable
define void @_ZN7httplib6detail17brotli_compressorC2Ev(ptr nocapture noundef nonnull writeonly align 8 dereferenceable(16) %this) unnamed_addr #5 align 2 personality ptr @__gxx_personality_v0 {
entry:
  store ptr getelementptr inbounds ({ [5 x ptr] }, ptr @_ZTVN7httplib6detail17brotli_compressorE, i64 0, i32 0, i64 2), ptr %this, align 8
  %state_ = getelementptr inbounds i8, ptr %this, i64 8
  store ptr null, ptr %state_, align 8
  %call = tail call ptr @BrotliEncoderCreateInstance(ptr noundef null, ptr noundef null, ptr noundef null)
  store ptr %call, ptr %state_, align 8
  ret void
}